(lp1
S'/nail/home/msaric/pg/query_lm/query_lm'
p2
aS'/nail/home/msaric/pg/query_lm'
p3
aS'/nail/home/msaric/pg'
p4
aS'/nail/home/msaric/pg/yelp-main'
p5
aS'/nail/home/msaric/pg/yelp-main/yelp'
p6
aS'/nail/home/msaric/pg/yelp-main/yelp/stubs'
p7
aS'/nail/home/msaric'
p8
aS'/nail/home/msaric/log-opt'
p9
aS'/nail/home/msaric/log-opt/bson-0.3.3'
p10
aS'/nail/home/msaric/pg/language_models'
p11
aS'/nail/home/msaric/pg/language_models/batch'
p12
aS'/nail/home/msaric/pg/query_lm'
p13
aS'/nail/home/msaric/pg/query_lm'
p14
aS'/nail/home/msaric/pg/query_lm'
p15
aS'/nail/home/msaric/pg/query_lm'
p16
a.