(dp1
Vprint(';'.join(get_ipython().Completer.all_completions('json_'))) #PYTHON-MODE SILENT
p2
I12
sVyelp.stubs.QueryLM().suggest('san', 10)
p3
I244
sVbad_impressions_by_category
p4
I1482
sVexecfile(r'/tmp/ipython-4298I_D.py') # PYTHON-MODE
p5
I630
s.