(dp1
Vset.union(map(lambda p: p[1], alias_to_root_list))
p2
I393
sVif q:
p3
I475
sVa, b = (1, 2)
p4
I595
sVprint(';'.join(__IP.Completer.all_completions('yelp.con'))) #PYTHON-MODE SILENT
p5
I1163
sVexecfile(r'/tmp/ipython-5538T9V.py') # PYTHON-MODE
p6
I720
sVq.insert('a')
p7
I436
sVnot (set(['a']) & set(['b','a']))
p8
I567
sVls - Finish the Q2C data load
p9
I628
sVlm = query_lm.backend.lm_backend.get_lm_backend()
p10
I1081
s.