(dp1
Vlocation_array
p2
I1490
sVlanguage_repos:
p3
I898
sVdatetime.utcnow()
p4
I1021
sVls dataloaders
p5
I733
sVls /nail/scratch/msaric/queries/category-bars/lang-en/matchtype-_match_total
p6
I663
sVexecfile(r'/tmp/ipython-10862_ho.py') # PYTHON-MODE
p7
I477
s.