(dp1
Vline.split('[[')[1]
p2
I1368
sVresults
p3
I1191
sVprint sys.version
p4
I387
sVexecfile(r'/tmp/ipython-51730LIp.py') # PYTHON-MODE
p5
I50
sVimport batch.irstlm_config
p6
I607
sVexecfile(r'/tmp/ipython-5538qHZ.py') # PYTHON-MODE
p7
I650
sV%pdb
p8
I520
sVprint(';'.join(__IP.Completer.all_completions('batch.query_to_category.mr_compute_q2c_lm_data.MRSea'))) #PYTHON-MODE SILENT
p9
I103
s.