(dp1
Vquery_lm.distribution('en', 'specialty eye care')()
p2
I1170
sVexecfile(r'/tmp/ipython-18020DlO.py') # PYTHON-MODE
p3
I589
sV__pyfile = open('''/tmp/psss-temp.py''');exec(compile(__pyfile.read(), '''/ssh:msaric@dev24:/tmp/psss-temp.py''', 'exec'));__pyfile.close()
p4
I7
sVprint(';'.join(__IP.Completer.all_completions('lo'))) #PYTHON-MODE SILENT
p5
I221
sVyelp.stubs.QueryLM().distribution('en', 'argentinian dance classes'=0, limit=5)()
p6
I1149
s.