(dp1
Vapply(set.union, map(lambda p: p[1], alias_to_root_list))
p2
I394
sVprint(';'.join(__IP.Completer.all_completions('yelp.util.validate.YelpE'))) #PYTHON-MODE SILENT
p3
I70
sVlen(lang_to_cats['en'])
p4
I656
sVexecfile(r'/tmp/ipython-10862ZSF.py') # PYTHON-MODE
p5
I497
sV# don't control the main() function
p6
I1185
sVexecfile(r'/tmp/ipython-10862bGr.py') # PYTHON-MODE
p7
I506
sVget_ipython()
p8
I20
sVconf.create_prefix()
p9
I973
sVimport yelputil.text
p10
I1202
s.