(dp1
Vlist(line.split('[[')[1].split(']')[:-2])
p2
I1362
sVm.startup_dataloader()
p3
I836
sVyelp.stubs.QueryLM().distribution('en', 'margaritas', gamma1=0.4, limit=5)()
p4
I1146
sVcats['de'].alias_to_countfile
p5
I688
s.