(dp1
Vstr(dostuff())
p2
I277
sVprint(';'.join(__IP.Completer.all_completions('batch.query_to_category.'))) #PYTHON-MODE SILENT
p3
I98
sVclique=['eventplanning', 'partysupplies', 'eventservices']
p4
I359
sVexecfile(r'/tmp/ipython-11888lGM.py') # PYTHON-MODE
p5
I847
s.