(dp1
Vsorted(clique, cmp=cat_cmp)
p2
I369
sVexecfile(r'/tmp/ipython-38397w7N.py') # PYTHON-MODE
p3
I1244
sVquery_string = 'specialty eye care'
p4
I269
sVprint(';'.join(__IP.Completer.all_completions('yelp.configure.'))) #PYTHON-MODE SILENT
p5
I1164
sVq.distribution(lang='en', q='argentinian dance classes')()
p6
I1265
sVf = backoff_qlm_score_send(s, 'en', 'food')
p7
I1288
s.