(dp1
Vyelp.logic.QueryToCategory._get_q2c_dict_from_lm('specialty eye care', 'en')
p2
I266
sVhelp(mr_printq)
p3
I1340
sVtrees = map(lambda p: [i[0] for i in p[1]], itertools.groupby(alias_to_root_list, lambda x: x[1]))
p4
I342
sVfilter(lambda x: x in category_maps.descendant_map_by_alias['shopping'], alias_list)
p5
I430
sVpopularity['a']
p6
I412
s.