(dp1
Vq=yelp.stubs.QueryLM(querylm_host="dev25")
p2
I1282
sVm.options, args = m.parser.parse_args()
p3
I837
sVprint(';'.join(__IP.Completer.all_completions('a.'))) #PYTHON-MODE SILENT
p4
I144
sVexecfile(r'/tmp/ipython-7902wa.py') # PYTHON-MODE
p5
I121
sVnumpy.nonzero(sum(((location_array - numpy.array([1000, 1000]))**2).T) < 100000**2)
p6
I1500
sVd.__dict__
p7
I948
sValias_list = alias_to_q2c_dict.keys()
p8
I464
s.