(dp1
Vprint(';'.join(__IP.Completer.all_completions('os.EX_'))) #PYTHON-MODE SILENT
p2
I30
sVutil.text.clean_query('a')
p3
I1205
sVprint(';'.join(__IP.Completer.all_completions('util.validate.YelpE'))) #PYTHON-MODE SILENT
p4
I78
sValiases
p5
I452
sVprint(';'.join(__IP.Completer.all_completions('engl.alia'))) #PYTHON-MODE SILENT
p6
I718
sVmap(lambda x: list(x[1]), alias_to_root_list)
p7
I408
s.