(dp1
Vimport traceback
p2
I1105
sVmap(lambda entry: (category_maps.id_to_alias_map[entry[1]], entry[2]), q2c_dict.iteritems())
p3
I309
sVfake.query_ball_point(numpy.array([0,0]), 1)
p4
I1420
sVexecfile(r'/tmp/ipython-10862M6W.py') # PYTHON-MODE
p5
I490
sVprint(';'.join(__IP.Completer.all_completions('x.__ge'))) #PYTHON-MODE SILENT
p6
I927
sVsys.path.add("/nail/home/msaric/pg/query_lm")
p7
I967
sVcat_is_higher('eventplanning', 'partysupplies')
p8
I361
sVengl.language
p9
I711
s.