(dp1
Va.join('a','dfgfgfg','vbvb')
p2
I159
sVd.language
p3
I790
sVexecfile(r'/tmp/ipython-5538fNJ.py') # PYTHON-MODE
p4
I705
sVx.__dict__['jozo']
p5
I935
sVq.distribution('en', 'a')()
p6
I1287
sVprint(';'.join(__IP.Completer.all_completions('yelp_l'))) #PYTHON-MODE SILENT
p7
I46
sVyelp.stubs.QueryLM().distribution('en', 'hello')()
p8
I1124
s.