(dp1
Vdef qs(q):
p2
I1209
sVtry:\u000a    a = "asdasd"\u000a    b = a/2\u000aexcept _, e:\u000a    print "Except: %s" % str(e)
p3
I1100
sVconf.ready = True
p4
I979
sVqstub=yelp.stubs.QueryLM()
p5
I181
sV%run impression_recovery.py
p6
I1408
sVfrom yelp.logic.query_to_category import QueryToCategory
p7
I262
s.