(dp1
Vreload dataloders
p2
I758
sVprint(';'.join(__IP.Completer.all_completions('backoff_qlm_sco'))) #PYTHON-MODE SILENT
p3
I1300
sVreload yelp.stubs
p4
I1112
sVbuild_params: ":n=3:w=2"
p5
I942
sVprint(';'.join(__IP.Completer.all_completions('baba'))) #PYTHON-MODE SILENT
p6
I1220
sVprint(';'.join(__IP.Completer.all_completions('yelp.util.val'))) #PYTHON-MODE SILENT
p7
I67
sVyelp.stubs.QueryLM().suggest('croatian american cultural', 5)
p8
I239
s.