(dp1
Vhelp(q2c_dict.sort)
p2
I286
sVexecfile(r'/tmp/ipython-9158Wjk.py') # PYTHON-MODE
p3
I1302
sVlanguages
p4
I621
sVconf = query_lm.lm_repo.LMReposConfig.init_with_prefix("/tmp/mirkotron")
p5
I1012
sVx=3.22
p6
I956
sVexecfile(r'/tmp/ipython-10862ORB.py') # PYTHON-MODE
p7
I513
sVimport sys.traceback
p8
I1104
sVls /nail/scratch/msaric/queries/category-bars/lang-en
p9
I662
sVx.__dict__
p10
I932
sVcat_is_higher('eventservices', 'party_supplies')
p11
I363
s.