(dp1
Vline.split('[[
p2
I1447
sVls /nail/scratch/msaric/queries/category-bars/lang-*/matchtype-_match_total/part-*.gz
p3
I643
sVdataloaders.Dataloader.__subclasses__()
p4
I774
sV[q, 4]
p5
I818
sVcats
p6
I674
sVexecfile(r'/tmp/ipython-18020CWf.py') # PYTHON-MODE
p7
I555
sVutil.text.clean_query('a\u0161\u0111')
p8
I1206
s.