(dp1
Vmrse = batch.query_to_category.mr_compute_q2c_lm_data.MRSearchSessionExtractor(args=[''])
p2
I112
sVyelp.stubs.QueryLM().distribution('en', 'specialty eye care', limit=1)()
p3
I1113
sVls
p4
I178
sVconfig.federator_server
p5
I1325
sVprint(';'.join(__IP.Completer.all_completions('string.splitfie'))) #PYTHON-MODE SILENT
p6
I1219
sVprint ("a""b")
p7
I800
s.