(dp1
Vs", [-118.4836988, 34.235606900000001], 0], [2990948, "seafoodmarkets", [-118.4836988, 34.235606900000001], 0]]                          \u2502    # Make the figure
p2
I1365
sVq.add('b')
p3
I440
sVcats=q.find_categories(prefix, ['en', 'de', 'it'])
p4
I708
s.