(dp1
Vsum([1 2 3])
p2
I164
sVfrom batch.irstlm_config import IRSTLM_CONFIG
p3
I604
sVlanguages = set([ os.path.basename(x) for x in glob.glob('/nail/scratch/msaric/queries/category-*/lang-*') ])
p4
I622
sVyelp.stubs.QueryLM().distribution('en', 'margaritas', gamma1=0.1, limit=5)()
p5
I1147
sVyelp.stubs.QueryLM().distribution('en', 'margaritas', limit=5)()
p6
I1142
s.