(dp1
Vprint(';'.join(__IP.Completer.all_completions('os.EX_CA'))) #PYTHON-MODE SILENT
p2
I32
sVexecfile(r'/tmp/ipython-11888yCq.py') # PYTHON-MODE
p3
I838
sVyelp.stubs.QueryLM().distribution('en', 'specialty eye care', limit=5)()
p4
I1111
sVexecfile(r'/tmp/ipython-5538H0W.py') # PYTHON-MODE
p5
I738
sVprint(';'.join(__IP.Completer.all_completions('util.valid'))) #PYTHON-MODE SILENT
p6
I75
sVqs('argentinian dance classes')
p7
I1214
sVc.alias_to_countfile
p8
I697
s.