(dp1
Vfor x in open("log_1000"):
p2
I223
sVcountfile_count_queries(itrepo.marginal_catinfo.countfile)
p3
I889
sVb.__class__.__name__
p4
I1074
sV?query_lm.backend.lm_backend
p5
I1079
sVprint(';'.join(__IP.Completer.all_completions('util.validate.Ye'))) #PYTHON-MODE SILENT
p6
I77
sVf = backoff_qlm_score_send(s, 'qq', 'food')
p7
I1310
sVprint(';'.join(__IP.Completer.all_completions('Ye'))) #PYTHON-MODE SILENT
p8
I63
s.