(dp1
Vexecfile(r'/tmp/ipython-4298vdW.py') # PYTHON-MODE
p2
I633
sVprint(';'.join(__IP.Completer.all_completions('yelp.stubs.'))) #PYTHON-MODE SILENT
p3
I174
sVfor root in roots:
p4
I401
sVfor x in open("~/log-opt/log_1000"):
p5
I225
sVexecfile(r'/tmp/ipython-18020mxc.py') # PYTHON-MODE
p6
I525
s.