(dp1
V-1 or 2
p2
I374
sVyelp.stubs.QueryLM().distribution('en', 'moss removal', gamma1=0.5, gamma2=1, limit=5)()
p3
I1133
sVLANG_PREFIX
p4
I632
sVexecfile(r'/tmp/ipython-94292_Aj.py') # PYTHON-MODE
p5
I267
sVself.par_reach['flowers']
p6
I527
sVprint "zorro"[:2]
p7
I200
s.