(dp1
Vimport simplejson
p2
I214
sVfind_categories(prefix, languages)
p3
I648
sVpopularity.setdefault('b', 0)
p4
I415
sV'%d' % category_id
p5
I261
sVprefix=""
p6
I964
sVmain_object.run([])
p7
I841
sVprint(';'.join(__IP.Completer.all_completions('m.star'))) #PYTHON-MODE SILENT
p8
I835
sVlist(set(('a','b')))
p9
I406
sVsys.getsizeof((8,9))
p10
I960
sVexecfile(r'/tmp/ipython-10862C6Z.py') # PYTHON-MODE
p11
I515
sVencat=cats['en']
p12
I761
s.