(dp1
Vline.split('[[')
p2
I1356
sValias_lsit
p3
I418
sVsys.argv
p4
I90
sVprint(';'.join(__IP.Completer.all_completions('batch.query_to_category.mr'))) #PYTHON-MODE SILENT
p5
I94
sVhelp(yaml)
p6
I892
sV(lambda x: x)1
p7
I343
s.