(dp1
Vengl.marginal_countfile
p2
I713
sVprint(';'.join(__IP.Completer.all_completions('c.'))) #PYTHON-MODE SILENT
p3
I693
sVimport yelp.configuration
p4
I1153
sVtry:\u000a    a = "asdasd"\u000a    b = a/2\u000aexcept Exception:\u000a    print "Exception: %s" % traceback.format_exc()
p5
I1106
sVa = {
p6
I1326
sVcat_graph = CategoryGraph()
p7
I569
sVLoadQ2CIntoDB()
p8
I19
s.