(dp1
Vcat_cmp('eventplanning', 'partysupplies') or (alias_to_q2c_dict['eventplanning']['ctr'] < alias_to_q2c_dict['partysupplies']['ctr'])
p2
I379
sVexecfile(r'/tmp/ipython-48551WBD.py') # PYTHON-MODE
p3
I9
sVprint(';'.join(__IP.Completer.all_completions('backoff_q'))) #PYTHON-MODE SILENT
p4
I1319
sVcat_is_higher('eventplanning', 'eventservices')
p5
I362
sV{'a':2, 'b':3}.values()
p6
I962
s.