(dp1
V[2,3].append(4)
p2
I815
sVcrank.main([])
p3
I1247
sVlm.load()
p4
I1084
sVfor x in lang_to_cats: print "%s: %d" % (x, len(lang_to_cats[x]))
p5
I660
sVexecfile(r'/tmp/ipython-10862OKN.py') # PYTHON-MODE
p6
I511
s.