(dp1
Vcats.__keys__
p2
I676
sVsum([1,])
p3
I165
sVimport os
p4
I27
sVyelp.stubs.QueryLM().distribution('en', 'margaritas', gamma1=0.3, limit=5)()
p5
I1145
sVq=Q2CHackathonMRJobDataloader()
p6
I701
sVmktime(time.gmtime())
p7
I905
s.