(dp1
Vprint(';'.join(__IP.Completer.all_completions('itrepo.mar'))) #PYTHON-MODE SILENT
p2
I880
sVq.find_categories('asdsa',['xxx'])
p3
I782
sVbad_impressions_by_category['151']
p4
I1466
sVad_info[0].split(", [")[1].split("], ")[0].split(", ")
p5
I1432
sVsys.getsizeof(float
p6
I954
sVyelp.stubs.QueryLM().query('specialty eye care', 5)
p7
I230
s.