(dp1
Vb=set(a)
p2
I547
sVline = '["[-0.84, 3538.80]", ["deptstores", "shoppingcenters"]] [0, [[2143066, "shopping", "[-2.73, 3544.21]", 0], [2551476, "shopping", "[-8.58, 3539.52]", 0]]]'
p3
I1438
sVexecfile(r'/tmp/ipython-55384Za.py') # PYTHON-MODE
p4
I673
sVancestors.add("dida")
p5
I139
sVprint(';'.join(__IP.Completer.all_completions('hel'))) #PYTHON-MODE SILENT
p6
I22
s.