(dp1
Vyelp.stubs.QueryLM().get_probs('specialty eye care', 5)
p2
I231
sVintersect(['a'],['b'])
p3
I420
sVimport string
p4
I1217
sVq()
p5
I1286
sVline.split('\u005ct')
p6
I1445
sVprint(';'.join(__IP.Completer.all_completions('backoff_qlm_receive_as_c'))) #PYTHON-MODE SILENT
p7
I1317
s.