(dp1
Vreload dataloders.hackathon_mrjob
p2
I756
sVexecfile(r'/tmp/ipython-94292Zcj.py') # PYTHON-MODE
p3
I275
sVprint(';'.join(__IP.Completer.all_completions('yelp.ba'))) #PYTHON-MODE SILENT
p4
I192
sVrecover_bad_impressions(file_name, bad_impressions_by_category, bad_impressions_by_id)
p5
I1487
sVprint(';'.join(get_ipython().Completer.all_completions('js'))) #PYTHON-MODE SILENT
p6
I10
sValias_list
p7
I419
sVchildren_dict
p8
I491
s.