(dp1
Vyelp.stubs.QueryLM().distribution('es', 'clas de tenis', limit=5)()
p2
I1157
sVnot (set(['a']) & set(['b']))
p3
I566
sVcategory_id = category_maps.alias_to_id_map[q_lm_dict['cat_name']]
p4
I252
sVcategories
p5
I619
s.