(dp1
Vsum([])
p2
I963
sVyelp.stubs.QueryLM().distribution('en', 'specialty eye care')()
p3
I1110
sVexecfile(r'/tmp/ipython-61640-x.py') # PYTHON-MODE
p4
I799
sVimport query_lm.backend.lm_backend
p5
I1078
sVimport yelp.util.text
p6
I1203
sVprint(';'.join(__IP.Completer.all_completions('os.EX_C'))) #PYTHON-MODE SILENT
p7
I31
s.