(dp1
Vpopularity['a']=1
p2
I413
sVline.split("]]")[0].split("[")
p3
I1348
sVimport scipy.scipy
p4
I1501
sVexecfile(r'/tmp/ipython-32398CLa.py') # PYTHON-MODE
p5
I601
sVast.literal_eval(ai)
p6
I1378
sVexecfile(r'/tmp/ipython-50707FAW.py') # PYTHON-MODE
p7
I16
sVancestors=set()
p8
I133
sVb
I548
s.