(dp1
Vline.split('[[')[1].split("], [")
p2
I1369
sVmr = batch.query_to_category.MRComputeQ2CLMData()
p3
I194
sVprint(';'.join(__IP.Completer.all_completions('batch.MR'))) #PYTHON-MODE SILENT
p4
I92
sVf()
p5
I1303
s.