(dp1
Vg.par_reach['stationery']
p2
I538
sVimport q2c_compat
p3
I1271
sVline.split(']]')
p4
I1443
sVq.distribution('en', 'a')
p5
I1285
sVyelp.stubs.QueryLM().distribution('en', 'anal bleaching',limit=5)()
p6
I1136
sVlog_posterior
p7
I253
sVd
I399
s.