(dp1
Vexecfile(r'/tmp/ipython-18020ozq.py') # PYTHON-MODE
p2
I551
sVraise yelp.stubs.query_lm.QueryLMIOError(TypeError("Baba"))
p3
I1174
sVf
I1290
sVl = LoadQ2CIntoDB()
p4
I51
sVa.distribution('en', 'selassie', limit=5)()
p5
I1180
sVline.split(', []]')[0].split('[')[1]
p6
I1450
sVlen(bad_impressions_by_category.keys())
p7
I1474
sVtrees = map(lambda p: p[1], itertools.groupby(alias_to_root_list, lambda x: x[1]))
p8
I338
sVexecfile(r'/tmp/ipython-180203Gz.py') # PYTHON-MODE
p9
I588
s.