(dp1
Vcountfile_count_queries('/nail/scratch/msaric/queries/category-yoga/lang-en/matchtype-_match_total/model.arpa.gz')
p2
I873
sVancestors |= 'jozo'
p3
I128
sVq.find_languages('asdsa')
p4
I780
sVconf2 = query_lm.lm_repos.LMReposConfig.load_from_prefix("/tmp/lm_repos")
p5
I983
sV# You can omit this if you're running in yelp-main and
p6
I1184
sVmr = batch.query_to_category.mr_compute_q2c_lm_data.MRComputeQ2CLMData()
p7
I196
sVq2c=QueryToCategory()
p8
I263
sVpolish=cats['pl']
p9
I722
s.