(dp1
Vmain_object.lang_build_repos['it']
p2
I876
sVline = '[4, 0, [-0.17802360735018138, 38.968735700621316], ["framing"]] [[null, null, null, 0]]'
p3
I1394
sVexecfile(r'/tmp/ipython-38082J7A.py') # PYTHON-MODE
p4
I610
sVprint(';'.join(__IP.Completer.all_completions('Q2CH'))) #PYTHON-MODE SILENT
p5
I700
sVls /tmp/mirkotron/it
p6
I1010
s.