(dp1
Vad_info[0].split(', "[')[1].split(']"')[0].split(", ")
p2
I1437
sVg.par_reach_dict['costumes']
p3
I534
sVlocation_array = numpy.array(bad_impressions_by_category[1590]['locs'][:])
p4
I1489
sVqs('pizza')
p5
I1211
sVexecfile(r'/tmp/ipython-6164AWZ.py') # PYTHON-MODE
p6
I795
sVancestor |= set('jozo')
p7
I134
sVexecfile(r'/tmp/ipython-18020m_E.py') # PYTHON-MODE
p8
I536
sVreload query_lm.dataload.lang_repo
p9
I867
s.