(dp1
Vline.split("]]"
p2
I1345
sV"""
p3
I899
sVparents_dict=dict()
p4
I479
sVb.distribution('it', 'ristorante', gamma1=0.1, gamma2=0)
p5
I1060
sVapply(os.path.basename, glob.glob('/nail/scratch/msaric/queries/category-*'))
p6
I617
sVexecfile(r'/tmp/ipython-18020dym.py') # PYTHON-MODE
p7
I587
s.