(dp1
Vsorted(q2c_dict.iteritems(), key=lambda x: print x)
p2
I301
sVsys.path.append('/nail/home/msaric/pg/query_lm')
p3
I798
sVstub.distribution(lang='en', query='specialty eye care', limit=15)()
p4
I1119
sVcat
p5
I980
s.