(dp1
Vexecfile(r'/tmp/ipython-51822H3c.py') # PYTHON-MODE
p2
I55
sVbad_impressions_by_category[1590]['locs']
p3
I1486
sVimport matplotlib
p4
I1342
sVls query_lm
p5
I796
sVu=namedtaple('Babo', 'x y')
p6
I665
sVutil.text.clean_query('a\u0161\u0111 a')
p7
I1208
sVexecfile(r'/tmp/ipython-38397ipM.py') # PYTHON-MODE
p8
I1216
sVlang_to_cats=find_categories(prefix, languages)
p9
I655
sVq.find_categories('asdsa','xxx')
p10
I781
s.