(dp1
Vexecfile(r'/tmp/ipython-5538J9Y.py') # PYTHON-MODE
p2
I791
sVprint(';'.join(get_ipython().Completer.all_completions('yelp'))) #PYTHON-MODE SILENT
p3
I11
sVstub.distribution(lang='en', query='specialty eye care', limit=8)()
p4
I1118
sVIn [8]:
p5
I89
sVprint(';'.join(__IP.Completer.all_completions('conf.'))) #PYTHON-MODE SILENT
p6
I977
sVprint(';'.join(__IP.Completer.all_completions('backoff_'))) #PYTHON-MODE SILENT
p7
I1295
s.