(dp1
Vq = yelp.stubs.QueryLM(querylm_host="dev24")
p2
I1259
sVcd ...
p3
I857
sVexecfile(r'/tmp/ipython-38397v6G.py') # PYTHON-MODE
p4
I1227
sVls /nail/scratch/msaric/queries/category-yoga/lang-en/matchtype-_match_total/part-00004.gz
p5
I864
sVset(['a','x','b','c']) - set(['b','c','d'])
p6
I449
sVyelp.stubs.QueryLM().suggest('croatian american cultural center', 5)
p7
I240
sVt
I1387
sValias_to_q2c_dict
p8
I319
s.