(dp1
Vfrom util.text import clean_query  # normalizes queries
p2
I1197
sVgmtime()
p3
I901
sVquit()
p4
I146
sVline.split('[[')[1].split(']')[0][:-1]
p5
I1358
sVexecfile(r'/tmp/ipython-9158j7S.py') # PYTHON-MODE
p6
I1307
sVstub.distribution(lang='ea', query='argentinian dance classes', limit=5)()
p7
I1122
sVexecfile(r'/tmp/ipython-108620Zw.py') # PYTHON-MODE
p8
I499
sVai = 'null, null, null, 0'
p9
I1373
sVa.__class__.__name__
p10
I1073
s.