(dp1
Vdatetime.utc_now()
p2
I1022
sVbackoff_qlm_score_receive_as_ctr('en', 'food')
p3
I1320
sVprint(';'.join(__IP.Completer.all_completions('os.setegi'))) #PYTHON-MODE SILENT
p4
I44
sVad_info = '2292387, "preschools", [-111.790638, 33.389921700000002], 0'
p5
I1402
sVb.distribution('it', 'pasta', gamma1=0.1, gamma2=1)
p6
I1064
sVdepth_chart
p7
I594
s.