(dp1
Vdir
p2
I792
sVhelp(q)
p3
I437
sVtry:\u000a    a = "asdasd"\u000a    b = a/2\u000aexcept Exception, e:\u000a    print "Exception (%s): %s" % str(e)
p4
I1102
sVparents_dict
p5
I486
sVyelp.stubs.query_lm.QueryLMIOError(TypeError("Baba")).__repr__()
p6
I1176
s.