(dp1
Vmake_trees(aliases, parents_dict, children_dict)
p2
I481
sVhelp yaml
p3
I893
sVthrow yelp.stubs.query_lm.QueryLMIOError(TypeError("Baba"))
p4
I1173
sVline.split("]]")[0].split("[")[2][:-3]
p5
I1352
sVimport yelp.configure, yelp.stubs
p6
I1193
s.