(dp1
Vimport datetime
p2
I1020
sVmrse.execute()
p3
I113
sVrecover_bad_impressions_old(missed_opportunites, bad_impressions_by_category, bad_impressions_by_id)
p4
I1480
sVions
p5
I2
sVd=d['xxx']
p6
I785
s.