(dp1
Vprint os.isatty(sys.stdout.fileno())
p2
I661
sVreload yelp.search.query_lm.q2c_compat import *
p3
I1281
sVexecfile(r'/tmp/ipython-18020Riz.py') # PYTHON-MODE
p4
I593
sVprint(';'.join(__IP.Completer.all_completions('MRSea'))) #PYTHON-MODE SILENT
p5
I91
sVlmb.init_lm_backend()
p6
I1089
sVprint(';'.join(__IP.Completer.all_completions('.'))) #PYTHON-MODE SILENT
p7
I685
sVyelp.util.text.clean_query('a')
p8
I1201
s.