(dp1
Vad_info = get_ad_info(line)
p2
I1399
sVcat_is_higher('eventservices', 'partysupplies')
p3
I364
sVhelp(bson)
p4
I224
sVprint(';'.join(__IP.Completer.all_completions('d.l'))) #PYTHON-MODE SILENT
p5
I786
sVimport sys,imp
p6
I59
s.