(dp1
Vimport emacs
p2
I6
sVprint(';'.join(__IP.Completer.all_completions('category_maps.de'))) #PYTHON-MODE SILENT
p3
I325
sVprint(';'.join(__IP.Completer.all_completions('l.processCommandLineOptions'))) #PYTHON-MODE SILENT
p4
I54
sVimport sys
p5
I386
sVconf = LMReposConfig()
p6
I970
sVengl=cats['en']
p7
I709
sVbad_impressions_by_category[1590]['ids']
p8
I1485
sV"%.2f" % -123.1234567
p9
I1426
sVq2c_dict.iteritems()
p10
I287
s.