(dp1
Vimport query_lm.backend.cpp_wrapper
p2
I1054
sVexit()
p3
I157
sVfrom query_lm.backend.lm_backend import LMBackend
p4
I1044
sVlist(set('a'))
p5
I404
sVyelp.stubs.QueryLM().distribution('en', 'moss removal', gamma1=0.1, limit=5)()
p6
I1131
sVpopularity=defaultdict(0)
p7
I414
sVyelp.search.query_lm.q2c_compat.q2c_dict_from_ctr_results({'restaurants': 1})
p8
I1270
sVline.split(', []]')[0].split('[')
p9
I1451
s.