(dp1
Vprint(';'.join(__IP.Completer.all_completions('stubs.'))) #PYTHON-MODE SILENT
p2
I202
sVclosest_descendants('costumes', aliases, cat_graph)
p3
I578
sVfuture = yelp.stubs.QueryLM().log_probs('specialty eye care', 10)()
p4
I245
sVline.split("]]").split("[")
p5
I1347
sVmain_object.run()
p6
I843
sVreload query_lm.lm_repo
p7
I974
sVb.distribution('it', 'zxczxczc', gamma1=0.1, gamma2=1)
p8
I1063
sVsum({'a':2,'b':3}.values())
p9
I809
s.