(dp1
Vexecfile(r'/tmp/ipython-108620nY.py') # PYTHON-MODE
p2
I505
sVenumerate([4,5,6])
p3
I1224
sVdict(sorted(q2c_dict.iteritems(), key=lambda x: x[1]['ctr'], reverse=True))
p4
I305
sVbuild_time: 3422211100
p5
I940
sVpolish.alias_to_countfile.keys()
p6
I726
sVimport json
p7
I278
sVline.split(', []]')[-2]
p8
I1457
sVprint(';'.join(__IP.Completer.all_completions('yelp.'))) #PYTHON-MODE SILENT
p9
I83
s.