(dp1
Vqlm_res = s.distribution('en', 'specialty eye care')
p2
I1277
sVline.split(', []]')[-2].split('[')[-1]
p3
I1458
sVt = '"mediterranean", "pakistani", "indpak"'
p4
I1383
sVexecfile(r'/tmp/ipython-10862Aqj.py') # PYTHON-MODE
p5
I494
s.