(dp1
Vencat.language
p2
I764
sVprint(';'.join(__IP.Completer.all_completions('mrse.execut'))) #PYTHON-MODE SILENT
p3
I119
sVexecfile(r'/tmp/ipython-1802008p.py') # PYTHON-MODE
p4
I540
sVdict([('a',2),('a',3)])
p5
I328
sVexecfile(r'/tmp/ipython-9158j0e.py') # PYTHON-MODE
p6
I1306
sVexecfile(r'/tmp/ipython-42989hv.py') # PYTHON-MODE
p7
I639
sVprint(';'.join(__IP.Completer.all_completions('os.EX'))) #PYTHON-MODE SILENT
p8
I29
sValias_to_descendants['shopping'] & aliases
p9
I467
s.