(dp1
Vmrse = batch.query_to_category.mr_compute_q2c_lm_data.MRSearchSessionExtractor(args=[])
p2
I111
sVfrom util.text import clean_query
p3
I1256
sVq.a
p4
I682
sVline.split('[')[1]
p5
I1395
sVresult
p6
I187
sVexecfile(r'/tmp/ipython-9158VwF.py') # PYTHON-MODE
p7
I1292
sVreload lm_repo
p8
I1047
s.