(dp1
Vancestors.update("jozo")
p2
I131
sVlanguages = find_languages(prefix)
p3
I647
sVqlm_res = s.distribution('en', 'specialty eye care')()
p4
I1279
sVdef cat_is_higher(a, b):
p5
I349
sVlen(lang_to_cats['de'])
p6
I657
s.