(dp1
Vprint(';'.join(__IP.Completer.all_completions('qstub.http_client.'))) #PYTHON-MODE SILENT
p2
I185
sVlocal_roots(aliases)
p3
I453
sVq.distribution('en', 'argentinian dance classes')()
p4
I1263
sVscorer_receive(f)
p5
I1289
s.