(dp1
Vprint(';'.join(__IP.Completer.all_completions('yelp.stubs.que'))) #PYTHON-MODE SILENT
p2
I207
sVmain_object=Q2CPrepareDataload(['-d', 'dzindoz', 'list', 'stats', 'it'])
p3
I848
sVos.__setattr__
p4
I42
sVdataloaders
p5
I735
sVd = _
p6
I944
s.