(dp1
Vg.chld_reach['shopping']
p2
I557
sVexecfile(r'/tmp/ipython-6164AIx.py') # PYTHON-MODE
p3
I794
sValias_to_root_list = map(lambda entry: (entry[0], category_maps.root_map_by_alias[entry[0]]), alias_to_q2c_dict)
p4
I322
sVd['a','b']=2
p5
I398
sVprint(';'.join(__IP.Completer.all_completions('itrepo.marginal_c'))) #PYTHON-MODE SILENT
p6
I883
sVquery_lm.backend.backend.load_from_cat_map()
p7
I155
sVhelp(g)
p8
I542
sVraw_cat_nodes
p9
I498
s.