(dp1
Vprint(';'.join(__IP.Completer.all_completions('yaml.ya'))) #PYTHON-MODE SILENT
p2
I916
sVprint(';'.join(__IP.Completer.all_completions('batch.query_to_category.mr_compute_q2c_lm_data.MR'))) #PYTHON-MODE SILENT
p3
I101
sVhelp('mr_printq')
p4
I1341
sV(lambda x y: x)(1,2)
p5
I345
sVyelp.stubs.QueryLM().distribution('en', 'dance classes', limit=5)()
p6
I1150
s.