(dp1
Vad_info.split(", [")[1].split("], ")
p2
I1405
sV"a" * 5
p3
I354
sVline.split("]]")
p4
I1346
sVcat_is_higher('partysupplies', 'partysupplies')
p5
I366
sVexecfile(r'/tmp/ipython-5538V_j.py') # PYTHON-MODE
p6
I769
sVsum(((location_array - numpy.array([1000, 1000]))**2).T) < 100**2
p7
I1498
sValias_to_descendants['shopping']
p8
I465
s.