(dp1
Vstub.distribution(lang='en', query='argentinian dance classes', limit=5)()
p2
I1121
sVline.split("]]")[0].split("[")[-1]
p3
I1381
sVdataloaders.dataloader
p4
I737
sVfor i in a:
p5
I1253
sVyelp.stubs.QueryLM().distribution('en', 'moss removal', limit=500)()
p6
I1159
s.