(dp1
Vbackend.load_from_cat_map()
p2
I149
sVimport time
p3
I902
sVexecfile(r'/tmp/ipython-18020qKV.py') # PYTHON-MODE
p4
I596
sV(set(['a']]) & set(['b'])) is None
p5
I563
sVx=4L
p6
I959
sVmaybe_pfo
p7
I15
s.