(dp1
Vimport crank
p2
I1245
sVprint(';'.join(__IP.Completer.all_completions('mr.exe'))) #PYTHON-MODE SILENT
p3
I198
sVitertools.groupby
p4
I331
sVtrees = map(lambda p: [i for i in p[1]], itertools.groupby(alias_to_root_list, lambda x: x[1]))
p5
I341
sVx.jozo=3
p6
I934
sV[2, 3] + 4
p7
I820
s.