(dp1
Vsorted(q2c_dict.iteritems(), key=lambda x: x[1]['ctr'])
p2
I302
sVexecfile(r'/tmp/ipython-55387cv.py') # PYTHON-MODE
p3
I749
sVset(['a']) - set(['b','c','d'])
p4
I448
sVprint(';'.join(__IP.Completer.all_completions('bs'))) #PYTHON-MODE SILENT
p5
I217
sValias_to_descendants['artsandcrafts']
p6
I495
sVlen(bad_impressions_by_category[3]['ids'])
p7
I1478
s.