(dp1
Vlist(ai)
p2
I1374
sVcountfile_count_queries('asdas')
p3
I861
sVexecfile(r'/tmp/ipython-108620gk.py') # PYTHON-MODE
p4
I503
sVq.find_languages()
p5
I779
sVad_info[0].split(', ')
p6
I1401
sV'baba':
p7
I1327
s.