(dp1
Vprint(';'.join(__IP.Completer.all_completions('json.'))) #PYTHON-MODE SILENT
p2
I58
sVprint(';'.join(__IP.Completer.all_completions('yelp.util.validate.'))) #PYTHON-MODE SILENT
p3
I68
sV[0]*20
p4
I1251
sVm=Q2CPrepareDataload()
p5
I834
sVclosest_descendants('flowers', aliases, cat_graph)
p6
I580
sVmap(lambda entry: entry, q2c_dict.iteritems())
p7
I315
s.