(dp1
Vq=Q2CHackathonMrJobDataloader()
p2
I778
sVexecfile(r'/tmp/ipython-55386ic.py') # PYTHON-MODE
p3
I731
sVos.path.exists('/naidsdl')
p4
I853
sVfederator_server
p5
I1324
sVyelp.stubs.QueryLM().distribution('en', 'moss removal', gamma1=0, limit=5)()
p6
I1130
sVrepos_build_message: another attempt
p7
I913
sVimport query_lm.lm_repo
p8
I969
sVconf2.prefix
p9
I988
sVcategory_maps.id_to_alias_map['900']
p10
I312
sVencat
p11
I762
s.