(dp1
Vexecfile(r'/tmp/ipython-23795zPi.py') # PYTHON-MODE
p2
I1258
sVclosest_descendants('stationery', aliases, cat_graph)
p3
I579
sVdef test(djuro, mirko):
p4
I96
sV''.join(a, ' ')
p5
I806
sVversion
p6
I385
sVmain_object=Q2CPrepareDataload('-e list stats it'.split())
p7
I875
s.