(dp1
Vexit
p2
I180
sVimport yelp.ad.config_ad
p3
I1409
sVexecfile(r'/tmp/ipython-42988uQ.py') # PYTHON-MODE
p4
I636
sVc=cats['de']
p5
I692
sVexecfile(r'/tmp/ipython-180201ZB.py') # PYTHON-MODE
p6
I568
sVtime.ctime()
p7
I1032
sVsorted(trees[0], cmp=cat_is_higher)
p8
I353
sVancestors.update('jozo')
p9
I130
s.