(dp1
Vstr(900)
p2
I259
sVg.par_reach_dict['stationery']
p3
I531
sVprint(';'.join(__IP.Completer.all_completions('qstub.http_client'))) #PYTHON-MODE SILENT
p4
I184
sVprint(';'.join(__IP.Completer.all_completions('yelp.stubs.QueryLMStub'))) #PYTHON-MODE SILENT
p5
I173
sVclass baba:
p6
I229
s.