(dp1
Vg.aliases
p2
I507
sVline.split('[[')[0].split("]]")[1].split("[")[1]
p3
I1440
sVprint(';'.join(__IP.Completer.all_completions('alias'))) #PYTHON-MODE SILENT
p4
I335
sVexecfile(r'/tmp/ipython-10862lbE.py') # PYTHON-MODE
p5
I489
sVprint(';'.join(__IP.Completer.all_completions('sys.'))) #PYTHON-MODE SILENT
p6
I951
sVset('a') | set('b')
p7
I426
sVtry:\u000a    a = "asdasd"\u000a    b = a/2\u000aexcept Exception:\u000a    print "Exception (%s): %s" % str(e)
p8
I1103
s.