(dp1
Vprint(';'.join(__IP.Completer.all_completions('qstub.'))) #PYTHON-MODE SILENT
p2
I182
sVprint(';'.join(__IP.Completer.all_completions('glob.'))) #PYTHON-MODE SILENT
p3
I613
sVexecfile(r'/tmp/ipython-11888O8I.py') # PYTHON-MODE
p4
I874
sVprint(';'.join(__IP.Completer.all_completions('query_lm.'))) #PYTHON-MODE SILENT
p5
I1168
sVfrom yelp.util import clean_query
p6
I1255
s.