(dp1
Vcd bson-0.3.3
p2
I220
sVq.find_languages('/s')
p3
I752
sVprint(';'.join(__IP.Completer.all_completions('qu'))) #PYTHON-MODE SILENT
p4
I858
sVfind_categories(prefix, 'de')
p5
I651
sVexecfile(r'/tmp/ipython-18020MdQ.py') # PYTHON-MODE
p6
I524
s.