(dp1
Vq[q.find(' '):]
p2
I1241
sVapply(z.append, ['a','b','c'])
p3
I586
sVept:
p4
I4
sVprint(';'.join(__IP.Completer.all_completions('backoff_qlm_score_re'))) #PYTHON-MODE SILENT
p5
I1304
sVprefix="/nail/scratch/msaric/queries"
p6
I702
sVprint(';'.join(__IP.Completer.all_completions('mrjob.'))) #PYTHON-MODE SILENT
p7
I37
sVyelp.stubs.QueryLM().distribution('en', 'moss removal', gamma1=0.3, limit=5)()
p8
I1154
s.