(dp1
Vnon-SBC CTR from 2012-10-20 00:00:00 to 2012-10-25 00:00:00: 0.028358
p2
I308
sVdatetime.datetime.strptime('2012-06-21', format)
p3
I266
sVline.split('[[')[1].split(']')[:-2][-1]
p4
I1360
sVai = '[' + ai + ']'
p5
I1375
s.