(dp1
Vdef qs(q):\u000a    d = query_lm.distribution('en', q)()
p2
I1210
sVprint(';'.join(__IP.Completer.all_completions('repos_co'))) #PYTHON-MODE SILENT
p3
I1035
sVlen(polish.alias_to_countfile)
p4
I725
sVprint(';'.join(__IP.Completer.all_completions('m.la'))) #PYTHON-MODE SILENT
p5
I81
s.