(dp1
Vimport backend
p2
I148
sVai=a.iteritems()
p3
I295
sVline.split(', []]')[-1]
p4
I1456
sVhelp(query_lm.backend.lm_backend)
p5
I1080
sVmrse = batch.query_to_category.mr_compute_q2c_lm_data.MRSearchSessionExtractor(args="")
p6
I110
sVtry:\u000a    a = "asdasd"\u000a    b = a/2\u000aexcept Exception, e:\u000a    print "Except: %s" % str(e)
p7
I1101
sVancestors.update(['jozox'])
p8
I137
sVlen(bad_impressions_by_category['822']['ids'])
p9
I1471
s.