(dp1
Vprint(';'.join(__IP.Completer.all_completions('encat.'))) #PYTHON-MODE SILENT
p2
I763
sVyelp.stubs.QueryLM().distribution('en', 'moss removal',limit=3)()
p3
I1135
sVsys.path
p4
I829
sVmain_object=Q2CPrepareDataload(['-d', 'dzindoz'])
p5
I846
sVimport config
p6
I1323
sVxrange(3,0)
p7
I441
sVset('a') & set('b')
p8
I428
s.