(dp1
Vls /tmp/mirkotron/de
p2
I1008
sVimport ast
p3
I1377
sVversion: 1
p4
I911
sVprint(';'.join(__IP.Completer.all_completions('category_maps.'))) #PYTHON-MODE SILENT
p5
I123
sVls /nail/scratch/msaric/queries
p6
I629
sVcategories:
p7
I943
s.