(dp1
V?conf2.repo_dir_prefix
p2
I992
sVlocal_roots(aliases, cat_graph)
p3
I570
sVimport impression_recovery
p4
I1398
sVtime.asctime(time.gmtime(1355555571))
p5
I907
sVyelp.search.query_lm.q2c_compat.q2c_dict_from_ctr_results({'mosques': 1})
p6
I1273
sVfor x in reversed(xrange(0, 3)):
p7
I447
sVconf.write_repos_and_config()
p8
I1033
s.