(dp1
Vprint(';'.join(__IP.Completer.all_completions('LoadQ2'))) #PYTHON-MODE SILENT
p2
I26
sVexecfile(r'/tmp/ipython-5538Gsb.py') # PYTHON-MODE
p3
I706
sVline = '["[-1.47, 3539.25]", ["dentists"]]      [1, []]'
p4
I1444
sVconf2 = query_lm.lm_repo.LMReposConfig.load_from_prefix("/tmp/lm_repos")
p5
I984
sVyelp.stubs.QueryLM().distribution('it', 'pesci', limit=5)()
p6
I1138
s.