(dp1
Vprint(';'.join(__IP.Completer.all_completions('batch.query_to_category.mr_c'))) #PYTHON-MODE SILENT
p2
I195
sVdoc(yaml)
p3
I891
sVimport scipy.spatial.KDTree
p4
I1414
sVengl.alias_to_countfile.keys()
p5
I715
sVexecfile(r'/tmp/ipython-10862ztF.py') # PYTHON-MODE
p6
I500
s.