(dp1
Vsum((location_array - numpy.array([1000, 1000]))**2.T)
p2
I1496
sVexecfile(r'/tmp/ipython-5538e-Z.py') # PYTHON-MODE
p3
I669
sVline.split('\u005ct')[0]
p4
I1446
sVyelp.stubs.QueryLM().distribution('it', 'pesce', limit=5)()
p5
I1139
sVancestors=set(ancestor for ancestor in category_maps.ancestor_map_by_alias['mexican'])
p6
I125
s.