(dp1
Vitemgetter(0)('a')
p2
I384
sVq='aads cvcv dfdf'
p3
I1239
sVprint(';'.join(__IP.Completer.all_completions('engl.mar'))) #PYTHON-MODE SILENT
p4
I712
sVCython.__path__
p5
I1504
sVfind_categories(prefix, set(['de']))
p6
I652
sVif'util.validate' in sys.modules:
p7
I60
sVchildren=set()
p8
I454
sVreload dataloaders
p9
I759
s.