(dp1
Vcategory_maps.id_to_alias_map[900]
p2
I313
sVclosest_descendants('artsandcrafts', aliases, cat_graph)
p3
I577
sVq='a b c'.split(' ')[1:].join()
p4
I1237
sVcd ..
p5
I179
sVstring.split('babadida', '\u005ct')
p6
I1221
sVcd yelp
p7
I209
sVprint results
p8
I1190
sVmap(lambda entry: entry[1], q2c_dict.iteritems())
p9
I316
sV[2, 3] + [4]
p10
I821
sVreload cpp_wrapper
p11
I1053
sVb = LMBackend()
p12
I1045
s.