(dp1
Va
I161
sVprint(';'.join(__IP.Completer.all_completions('alias_to_desce'))) #PYTHON-MODE SILENT
p2
I457
sVencat.marginal_countfile
p3
I768
sVg.parents['costumes']
p4
I533
sVexecfile(r'/tmp/ipython-18020qDh.py') # PYTHON-MODE
p5
I592
sVa=set('a')
p6
I546
s.