(dp1
Vline = "Name: Dong Su"
p2
I1391
sVg.par_reach['flowers']
p3
I528
sVfor k, v in q2c_dict.iteritems():
p4
I298
sVexecfile(r'/tmp/ipython-11888Xmi.py') # PYTHON-MODE
p5
I828
sVimport bson
p6
I213
sVexecfile(r'/tmp/ipython-10862YKK.py') # PYTHON-MODE
p7
I482
s.