(dp1
Vls /nail/scratch/msaric/lm_data/stats/sorted_counts.all
p2
I1234
sVq.add('baba'0
p3
I484
sVcountfile_count_queries('/nail/scratch/msaric/queries/category-yoga/lang-en/matchtype-_match_total/part-00004.gz')
p4
I865
s.