(dp1
Vquery_lm = yelp.stubs.QueryLM()
p2
I1167
sVexecfile(r'/tmp/ipython-5538FrU.py') # PYTHON-MODE
p3
I683
sVprint(';'.join(__IP.Completer.all_completions('util.valda'))) #PYTHON-MODE SILENT
p4
I74
sVprint(';'.join(__IP.Completer.all_completions('util.validate.'))) #PYTHON-MODE SILENT
p5
I86
sV""")
p6
I900
s.