(dp1
V'costumes' in category_maps.descendant_map_by_alias['shopping']
p2
I326
sVexecfile(r'/tmp/ipython-18020P1B.py') # PYTHON-MODE
p3
I576
sVexecfile(r'/tmp/ipython-38397WgN.py') # PYTHON-MODE
p4
I1232
sVlm.distribution("baba dida")
p5
I1085
s.