(dp1
Vyelp.stubs.QueryLMStub.distribution('en', 'specialty eye care')()
p2
I1108
sVprint(';'.join(__IP.Completer.all_completions('Loa'))) #PYTHON-MODE SILENT
p3
I23
sVconf2.prefix="/tmp/xcxccc"
p4
I1001
s.