(dp1
Vprint 1,2
p2
I292
sVclosest_descendants('shopping', aliases, cat_graph)
p3
I575
sVprint(';'.join(__IP.Completer.all_completions('batch.qu'))) #PYTHON-MODE SILENT
p4
I93
sVbuild_message: first attempt
p5
I941
sVpopularity
p6
I403
sVprint(';'.join(__IP.Completer.all_completions('alias_to_'))) #PYTHON-MODE SILENT
p7
I337
sVq.distribution(lang='en', query='argentinian dance classes')()
p8
I1266
sVresults = query_lm.distribution('en', 'cats and puppies', limit=5)()
p9
I1189
s.