(dp1
Vid_q2c_dict = eval(raw_input('Q2C Dict?> '))
p2
I460
sVfake.query_ball_point(numpy.array([0,0]), 2)
p3
I1421
sVq += set('a')
p4
I434
sVexecfile(r'/tmp/ipython-18020DXm.py') # PYTHON-MODE
p5
I574
s.