(dp1
Vcat_is_higher('partysupplies', 'eventservices')
p2
I356
sVd.languagea
p3
I788
sVt[1:-1]
p4
I1389
sVimport yelp.search.query_lm.q2c_compat
p5
I1269
sVexecfile(r'/tmp/ipython-5538QzM.py') # PYTHON-MODE
p6
I649
sVimport tornado
p7
I1075
s.