(dp1
Vchildren.add(alias_to_descendants['shopping'] & aliases)
p2
I468
sVprint(';'.join(__IP.Completer.all_completions('tornado.'))) #PYTHON-MODE SILENT
p3
I1076
sVad_info[0].split(', "[')
p4
I1435
sVos.path.basename(glob.glob('/nail/scratch/msaric/queries/category-*'))
p5
I616
sVimport yelp.stubs.QueryLM
p6
I204
sVsorted(clique, cmp=cat_is_higher)
p7
I360
sVq
I439
sVprint(';'.join(__IP.Completer.all_completions('d.la'))) #PYTHON-MODE SILENT
p8
I789
s.