(dp1
Va['lucy_queries']
p2
I1332
sVprint(';'.join(__IP.Completer.all_completions('batch.irstlm_co'))) #PYTHON-MODE SILENT
p3
I603
sVs
I1293
sVdict(map(lambda entry: (id_to_alias_map[entry[1]], entry[2]), q2c_dict.iteritems()))
p4
I307
s.