(dp1
Va = batch.query_to_category.mr_compute_q2c_lm_data.MRComputeQ2CLMData()
p2
I143
sVprint(';'.join(__IP.Completer.all_completions('c.al'))) #PYTHON-MODE SILENT
p3
I696
sVsorted(clique, cmp=cat_cmp, reverse=True)
p4
I373
sVyelp.stubs.QueryLM().distribution('en', 'margaritas', gamma1=0.2, limit=5)()
p5
I1144
sVconf2.write_repos_and_config()
p6
I1005
sVcategories = [ os.path.basename(x) for x in glob.glob('/nail/scratch/msaric/queries/category-*') ]
p7
I618
s.