(dp1
Vexecfile(r'/tmp/ipython-10862ZLR.py') # PYTHON-MODE
p2
I493
sVdataloaders.hackathon_mrjob
p3
I741
sVitrepo.marginal_catinfo.countfile_count
p4
I886
sVprint(';'.join(__IP.Completer.all_completions('en_repo.'))) #PYTHON-MODE SILENT
p5
I1016
sVexecfile(r'/tmp/ipython-32683N8a.py') # PYTHON-MODE
p6
I602
s.