(dp1
Vcategory_maps.id_to_alias_map['702']
p2
I311
sVfrom query_lm.backend import lm_backend
p3
I1041
sVexecfile(r'/tmp/ipython-38397JPT.py') # PYTHON-MODE
p4
I1228
sVprint(';'.join(__IP.Completer.all_completions('en_repo.la'))) #PYTHON-MODE SILENT
p5
I1018
sVmr_printq.
p6
I1339
s.