(dp1
Vhelp(bson.codec)
p2
I226
sVcat_is_higher('shopping', 'costumes')
p3
I350
sVq2c_dict=eval(str)
p4
I282
sVset('a') v set('b')
p5
I427
sVyelp.stubs.QueryLM().distribution('en', 'margaritas', limit=15)()
p6
I1143
sVimport yelp.stubs.query_lm as query_lm
p7
I1107
sVfor x in enumerate([4,5,6]):
p8
I1226
sVprint(';'.join(__IP.Completer.all_completions('back'))) #PYTHON-MODE SILENT
p9
I1294
sVset.union
p10
I391
s.