(dp1
Vcat_cmp('partysupplies', 'eventplanning') or (alias_to_q2c_dict['partysupplies'] < alias_to_q2c_dict['eventplanning']['ctr'])
p2
I380
sVu=namedtuple('Babo', 'x y')
p3
I666
sVitrepo.marginal_catinfo
p4
I884
sVls ../query_lm
p5
I856
sVinitialize_parents_children(aliases, parents_dict, children_dict)
p6
I488
sVq.add('baba')
p7
I485
s.