(dp1
Vexecfile(r'/tmp/ipython-55388re.py') # PYTHON-MODE
p2
I777
sVgroupby
p3
I329
sVprint(';'.join(__IP.Completer.all_completions('encat.mar'))) #PYTHON-MODE SILENT
p4
I767
sVtime.calendar.timegm()
p5
I908
sVyelp.stubs.QueryLM().distribution('en', 'asdsa')
p6
I1171
sVad_info
p7
I1372
sVexecfile(r'/tmp/ipython-4298I4P.py') # PYTHON-MODE
p8
I624
s.