(dp1
Vexecfile(r'/tmp/ipython-10862Czl.py') # PYTHON-MODE
p2
I512
sVset.intersection(['a'],['b'])
p3
I423
sVitemgetter
p4
I383
sVfrom batch import IRSTLM_CONFIG
p5
I605
sVad_info[0].split(", "[")
p6
I1434
sVfuture = yelp.stubs.QueryLM().log_probs('specialty eye care', 5)
p7
I170
sVfloat(3)
p8
I950
sVhelp(yaml.YAMLError)
p9
I921
sVa.__name__
p10
I1072
sVcat /tmp/mirkotron/repos_config.yaml
p11
I1037
s.