(dp1
Vlast_build_time: 343444442
p2
I896
sVz=[]
p3
I581
sVline = "[4, 12, [-118.24641881958932, 34.041479913335429], ["seafoodmarkets"]]  [[2990948, "seafoodmarkets", [-118.4836988, 34.235606900000001], 0], [2990948, "seafoodmarkets", [-118.4836988, 34.235606900000001], 0]]"
p4
I1366
sVimport query_lm.backend.lm_backend as lmb
p5
I1088
sVprint(';'.join(__IP.Completer.all_completions('d.languagea'))) #PYTHON-MODE SILENT
p6
I787
s.